	.cpu cortex-m3
	.arch armv7-m
	.fpu softvfp
	.eabi_attribute 20, 1
	.eabi_attribute 21, 1
	.eabi_attribute 23, 3
	.eabi_attribute 24, 1
	.eabi_attribute 25, 1
	.eabi_attribute 26, 1
	.eabi_attribute 30, 6
	.eabi_attribute 34, 1
	.eabi_attribute 18, 4
	.file	"arch_offset.c"
	.text
.Ltext0:
	.cfi_sections	.debug_frame
	.file 1 "D:/AutoSAR_Project/classic-platform-master/system/Os/osal/arm/armv7_m/kernel/arch_offset.c"
	.section	.text.arch_offset_dummy,"ax",%progbits
	.align	1
	.global	arch_offset_dummy
	.syntax unified
	.thumb
	.thumb_func
	.type	arch_offset_dummy, %function
arch_offset_dummy:
.LFB87:
	.loc 1 11 30
	.cfi_startproc
	@ args = 0, pretend = 0, frame = 0
	@ frame_needed = 1, uses_anonymous_args = 0
	@ link register save eliminated.
	push	{r7}
.LCFI0:
	.cfi_def_cfa_offset 4
	.cfi_offset 7, -4
	add	r7, sp, #0
.LCFI1:
	.cfi_def_cfa_register 7
	.loc 1 13 5
	.syntax unified
@ 13 "D:/AutoSAR_Project/classic-platform-master/system/Os/osal/arm/armv7_m/kernel/arch_offset.c" 1
	#define	EXC_FRM_R0	#0
@ 0 "" 2
	.loc 1 14 5
@ 14 "D:/AutoSAR_Project/classic-platform-master/system/Os/osal/arm/armv7_m/kernel/arch_offset.c" 1
	#define	EXC_FRM_R1	#4
@ 0 "" 2
	.loc 1 15 5
@ 15 "D:/AutoSAR_Project/classic-platform-master/system/Os/osal/arm/armv7_m/kernel/arch_offset.c" 1
	#define	EXC_FRM_R2	#8
@ 0 "" 2
	.loc 1 16 5
@ 16 "D:/AutoSAR_Project/classic-platform-master/system/Os/osal/arm/armv7_m/kernel/arch_offset.c" 1
	#define	EXC_FRM_R3	#12
@ 0 "" 2
	.loc 1 17 5
@ 17 "D:/AutoSAR_Project/classic-platform-master/system/Os/osal/arm/armv7_m/kernel/arch_offset.c" 1
	#define	EXC_FRM_R12	#16
@ 0 "" 2
	.loc 1 18 5
@ 18 "D:/AutoSAR_Project/classic-platform-master/system/Os/osal/arm/armv7_m/kernel/arch_offset.c" 1
	#define	EXC_FRM_LR	#20
@ 0 "" 2
	.loc 1 19 5
@ 19 "D:/AutoSAR_Project/classic-platform-master/system/Os/osal/arm/armv7_m/kernel/arch_offset.c" 1
	#define	EXC_FRM_PC	#24
@ 0 "" 2
	.loc 1 20 5
@ 20 "D:/AutoSAR_Project/classic-platform-master/system/Os/osal/arm/armv7_m/kernel/arch_offset.c" 1
	#define	EXC_FRM_PSR	#28
@ 0 "" 2
	.loc 1 23 5
@ 23 "D:/AutoSAR_Project/classic-platform-master/system/Os/osal/arm/armv7_m/kernel/arch_offset.c" 1
	#define	STACK_APA	#32
@ 0 "" 2
	.loc 1 26 5
@ 26 "D:/AutoSAR_Project/classic-platform-master/system/Os/osal/arm/armv7_m/kernel/arch_offset.c" 1
	#define	STACK_CURR	#0
@ 0 "" 2
	.loc 1 27 5
@ 27 "D:/AutoSAR_Project/classic-platform-master/system/Os/osal/arm/armv7_m/kernel/arch_offset.c" 1
	#define	STACK_CURR_TOP	#4
@ 0 "" 2
	.loc 1 28 5
@ 28 "D:/AutoSAR_Project/classic-platform-master/system/Os/osal/arm/armv7_m/kernel/arch_offset.c" 1
	#define	STACK_CURR_SIZE	#8
@ 0 "" 2
	.loc 1 29 5
@ 29 "D:/AutoSAR_Project/classic-platform-master/system/Os/osal/arm/armv7_m/kernel/arch_offset.c" 1
	#define	TASK_CONST	#64
@ 0 "" 2
	.loc 1 30 1
	.thumb
	.syntax unified
	nop
	mov	sp, r7
.LCFI2:
	.cfi_def_cfa_register 13
	@ sp needed
	pop	{r7}
.LCFI3:
	.cfi_restore 7
	.cfi_def_cfa_offset 0
	bx	lr
	.cfi_endproc
.LFE87:
	.size	arch_offset_dummy, .-arch_offset_dummy
	.text
.Letext0: